Certificate:
    Data:
        Version: 3 (0x2)
        Serial Number:
            d2:23:78:fc:ad:2e:7d:82
        Signature Algorithm: sha1WithRSAEncryption
        Issuer: C=GB, ST=London, O=Robert Byrne, CN=byrnemail.org/emailAddress=robert@byrnemail.org
        Validity
            Not Before: Dec  4 11:55:53 2013 GMT
            Not After : Dec  3 11:55:53 2016 GMT
        Subject: C=GB, ST=London, O=Robert Byrne, CN=byrnemail.org/emailAddress=robert@byrnemail.org
        Subject Public Key Info:
            Public Key Algorithm: rsaEncryption
            RSA Public Key: (1024 bit)
                Modulus (1024 bit):
                    00:a9:7a:9c:ae:20:55:e5:74:45:de:20:de:38:b6:
                    04:8b:cf:3a:f4:1c:ee:e9:18:68:ea:25:c8:3a:88:
                    9f:ce:6d:a4:92:d6:6c:f9:b1:6a:38:51:0f:b2:1e:
                    54:8c:d6:63:2b:5f:de:ca:e2:8a:44:1e:86:22:00:
                    a4:5d:dd:fb:82:7b:12:d6:f5:f5:03:45:f8:07:ea:
                    f8:92:42:75:79:e8:55:10:45:3a:47:b7:62:5d:05:
                    10:0d:67:7f:2a:d5:8e:7b:d2:39:e0:c9:0a:84:56:
                    d6:7b:74:24:b8:e5:43:c9:3a:f3:89:f0:b6:f9:03:
                    7c:19:9b:45:45:ff:a7:c6:3f
                Exponent: 65537 (0x10001)
        X509v3 extensions:
            X509v3 Subject Key Identifier: 
                C7:25:55:6C:4D:71:A4:42:C6:0D:13:CD:8A:78:D6:AB:13:BB:DC:FC
            X509v3 Authority Key Identifier: 
                keyid:C7:25:55:6C:4D:71:A4:42:C6:0D:13:CD:8A:78:D6:AB:13:BB:DC:FC
                DirName:/C=GB/ST=London/O=Robert Byrne/CN=byrnemail.org/emailAddress=robert@byrnemail.org
                serial:D2:23:78:FC:AD:2E:7D:82

            X509v3 Basic Constraints: 
                CA:TRUE
    Signature Algorithm: sha1WithRSAEncryption
        64:cb:01:42:39:7f:3d:49:4c:4d:3f:31:44:35:f0:4e:33:2b:
        22:b4:cc:97:1c:2d:21:85:09:fd:02:09:b2:46:94:d0:fd:ea:
        1b:d9:e6:3b:bf:14:35:62:cf:77:5a:82:a5:b9:2d:9b:b9:57:
        32:f5:f7:b6:a0:94:02:62:2d:d7:f8:7e:99:8a:33:17:52:61:
        e8:01:f8:11:43:65:90:df:3b:43:5e:90:2e:d1:c0:5b:55:25:
        79:07:7f:6a:f3:42:64:ad:1f:00:85:b5:9f:1c:f1:54:93:33:
        8e:98:14:d8:1c:5c:fc:38:4a:e1:64:47:35:ee:67:22:f5:53:
        07:e0
-----BEGIN CERTIFICATE-----
MIIDOjCCAqOgAwIBAgIJANIjePytLn2CMA0GCSqGSIb3DQEBBQUAMHIxCzAJBgNV
BAYTAkdCMQ8wDQYDVQQIEwZMb25kb24xFTATBgNVBAoTDFJvYmVydCBCeXJuZTEW
MBQGA1UEAxMNYnlybmVtYWlsLm9yZzEjMCEGCSqGSIb3DQEJARYUcm9iZXJ0QGJ5
cm5lbWFpbC5vcmcwHhcNMTMxMjA0MTE1NTUzWhcNMTYxMjAzMTE1NTUzWjByMQsw
CQYDVQQGEwJHQjEPMA0GA1UECBMGTG9uZG9uMRUwEwYDVQQKEwxSb2JlcnQgQnly
bmUxFjAUBgNVBAMTDWJ5cm5lbWFpbC5vcmcxIzAhBgkqhkiG9w0BCQEWFHJvYmVy
dEBieXJuZW1haWwub3JnMIGfMA0GCSqGSIb3DQEBAQUAA4GNADCBiQKBgQCpepyu
IFXldEXeIN44tgSLzzr0HO7pGGjqJcg6iJ/ObaSS1mz5sWo4UQ+yHlSM1mMrX97K
4opEHoYiAKRd3fuCexLW9fUDRfgH6viSQnV56FUQRTpHt2JdBRANZ38q1Y570jng
yQqEVtZ7dCS45UPJOvOJ8Lb5A3wZm0VF/6fGPwIDAQABo4HXMIHUMB0GA1UdDgQW
BBTHJVVsTXGkQsYNE82KeNarE7vc/DCBpAYDVR0jBIGcMIGZgBTHJVVsTXGkQsYN
E82KeNarE7vc/KF2pHQwcjELMAkGA1UEBhMCR0IxDzANBgNVBAgTBkxvbmRvbjEV
MBMGA1UEChMMUm9iZXJ0IEJ5cm5lMRYwFAYDVQQDEw1ieXJuZW1haWwub3JnMSMw
IQYJKoZIhvcNAQkBFhRyb2JlcnRAYnlybmVtYWlsLm9yZ4IJANIjePytLn2CMAwG
A1UdEwQFMAMBAf8wDQYJKoZIhvcNAQEFBQADgYEAZMsBQjl/PUlMTT8xRDXwTjMr
IrTMlxwtIYUJ/QIJskaU0P3qG9nmO78UNWLPd1qCpbktm7lXMvX3tqCUAmIt1/h+
mYozF1Jh6AH4EUNlkN87Q16QLtHAW1UleQd/avNCZK0fAIW1nxzxVJMzjpgU2Bxc
/DhK4WRHNe5nIvVTB+A=
-----END CERTIFICATE-----
