Certificate:
    Data:
        Version: 3 (0x2)
        Serial Number:
            d2:23:78:fc:ad:2e:7d:88
        Signature Algorithm: sha1WithRSAEncryption
        Issuer: C=GB, ST=London, O=Robert Byrne, CN=byrnemail.org/emailAddress=robert@byrnemail.org
        Validity
            Not Before: Dec  7 13:26:46 2013 GMT
            Not After : Dec  7 13:26:46 2014 GMT
        Subject: C=GB, ST=London, O=Winifred @ Laura, CN=laura/emailAddress=robert@byrnemail.org
        Subject Public Key Info:
            Public Key Algorithm: rsaEncryption
            RSA Public Key: (1024 bit)
                Modulus (1024 bit):
                    00:c5:32:a5:66:00:98:54:5d:65:aa:1d:02:49:0b:
                    f4:59:d7:c1:29:07:07:f0:6f:b4:ff:c2:2f:1c:f1:
                    fd:18:12:d5:e2:86:29:18:8d:2a:bd:3e:2c:8f:e9:
                    7d:96:e8:0e:eb:a2:ad:89:7e:b7:a9:14:b0:b7:01:
                    84:51:46:ba:0d:a1:ca:15:df:e6:21:26:0e:d7:58:
                    10:44:a6:d9:e7:c0:eb:53:45:24:ff:fa:f0:36:cc:
                    f8:06:2b:82:69:11:88:8a:ae:64:7a:01:39:15:cd:
                    46:a4:92:5b:e7:8c:ee:a9:f6:e9:04:8e:87:9e:8b:
                    53:a0:83:ec:a4:77:f7:62:a5
                Exponent: 65537 (0x10001)
        X509v3 extensions:
            X509v3 Basic Constraints: 
                CA:FALSE
            Netscape Comment: 
                OpenSSL Generated Certificate
            X509v3 Subject Key Identifier: 
                5B:87:79:09:54:7D:B0:57:C8:CB:3A:85:8F:3E:CA:ED:02:54:ED:14
            X509v3 Authority Key Identifier: 
                keyid:C7:25:55:6C:4D:71:A4:42:C6:0D:13:CD:8A:78:D6:AB:13:BB:DC:FC

    Signature Algorithm: sha1WithRSAEncryption
        0a:67:56:bf:a3:2a:63:9a:c8:02:32:36:50:72:49:dc:8a:1a:
        d9:d2:12:0a:46:cb:ac:de:da:1b:ba:1a:81:a7:ee:bf:7f:3c:
        08:9c:ec:8d:8b:80:d6:46:8c:4b:80:93:c6:d9:75:46:ac:08:
        d6:1e:eb:02:5d:1f:8a:4a:13:3e:03:f6:17:29:59:13:eb:cc:
        46:0e:f6:2c:3e:5a:71:e9:ee:9c:ee:79:62:f2:e2:66:b5:39:
        8d:8f:b9:16:c9:0d:d2:8b:df:d5:0e:45:14:7c:b9:eb:a1:5a:
        bb:3d:30:a2:3a:89:7c:67:80:bc:99:62:25:54:d3:e2:c6:26:
        c5:3e
-----BEGIN CERTIFICATE-----
MIIC2TCCAkKgAwIBAgIJANIjePytLn2IMA0GCSqGSIb3DQEBBQUAMHIxCzAJBgNV
BAYTAkdCMQ8wDQYDVQQIEwZMb25kb24xFTATBgNVBAoTDFJvYmVydCBCeXJuZTEW
MBQGA1UEAxMNYnlybmVtYWlsLm9yZzEjMCEGCSqGSIb3DQEJARYUcm9iZXJ0QGJ5
cm5lbWFpbC5vcmcwHhcNMTMxMjA3MTMyNjQ2WhcNMTQxMjA3MTMyNjQ2WjBuMQsw
CQYDVQQGEwJHQjEPMA0GA1UECBMGTG9uZG9uMRkwFwYDVQQKFBBXaW5pZnJlZCBA
IExhdXJhMQ4wDAYDVQQDEwVsYXVyYTEjMCEGCSqGSIb3DQEJARYUcm9iZXJ0QGJ5
cm5lbWFpbC5vcmcwgZ8wDQYJKoZIhvcNAQEBBQADgY0AMIGJAoGBAMUypWYAmFRd
ZaodAkkL9FnXwSkHB/BvtP/CLxzx/RgS1eKGKRiNKr0+LI/pfZboDuuirYl+t6kU
sLcBhFFGug2hyhXf5iEmDtdYEESm2efA61NFJP/68DbM+AYrgmkRiIquZHoBORXN
RqSSW+eM7qn26QSOh56LU6CD7KR392KlAgMBAAGjezB5MAkGA1UdEwQCMAAwLAYJ
YIZIAYb4QgENBB8WHU9wZW5TU0wgR2VuZXJhdGVkIENlcnRpZmljYXRlMB0GA1Ud
DgQWBBRbh3kJVH2wV8jLOoWPPsrtAlTtFDAfBgNVHSMEGDAWgBTHJVVsTXGkQsYN
E82KeNarE7vc/DANBgkqhkiG9w0BAQUFAAOBgQAKZ1a/oypjmsgCMjZQckncihrZ
0hIKRsus3tobuhqBp+6/fzwInOyNi4DWRoxLgJPG2XVGrAjWHusCXR+KShM+A/YX
KVkT68xGDvYsPlpx6e6c7nli8uJmtTmNj7kWyQ3Si9/VDkUUfLnroVq7PTCiOol8
Z4C8mWIlVNPixibFPg==
-----END CERTIFICATE-----
