Certificate:
    Data:
        Version: 3 (0x2)
        Serial Number:
            d2:23:78:fc:ad:2e:7d:88
        Signature Algorithm: sha1WithRSAEncryption
        Issuer: C=GB, ST=London, O=Robert Byrne, CN=byrnemail.org/emailAddress=robert@byrnemail.org
        Validity
            Not Before: Dec  7 13:26:46 2013 GMT
            Not After : Dec  7 13:26:46 2014 GMT
        Subject: C=GB, ST=London, O=Winifred @ Laura, CN=laura/emailAddress=robert@byrnemail.org
        Subject Public Key Info:
            Public Key Algorithm: rsaEncryption
            RSA Public Key: (1024 bit)
                Modulus (1024 bit):
                    00:c5:32:a5:66:00:98:54:5d:65:aa:1d:02:49:0b:
                    f4:59:d7:c1:29:07:07:f0:6f:b4:ff:c2:2f:1c:f1:
                    fd:18:12:d5:e2:86:29:18:8d:2a:bd:3e:2c:8f:e9:
                    7d:96:e8:0e:eb:a2:ad:89:7e:b7:a9:14:b0:b7:01:
                    84:51:46:ba:0d:a1:ca:15:df:e6:21:26:0e:d7:58:
                    10:44:a6:d9:e7:c0:eb:53:45:24:ff:fa:f0:36:cc:
                    f8:06:2b:82:69:11:88:8a:ae:64:7a:01:39:15:cd:
                    46:a4:92:5b:e7:8c:ee:a9:f6:e9:04:8e:87:9e:8b:
                    53:a0:83:ec:a4:77:f7:62:a5
                Exponent: 65537 (0x10001)
        X509v3 extensions:
            X509v3 Basic Constraints: 
                CA:FALSE
            Netscape Comment: 
                OpenSSL Generated Certificate
            X509v3 Subject Key Identifier: 
                5B:87:79:09:54:7D:B0:57:C8:CB:3A:85:8F:3E:CA:ED:02:54:ED:14
            X509v3 Authority Key Identifier: 
                keyid:C7:25:55:6C:4D:71:A4:42:C6:0D:13:CD:8A:78:D6:AB:13:BB:DC:FC

    Signature Algorithm: sha1WithRSAEncryption
        0a:67:56:bf:a3:2a:63:9a:c8:02:32:36:50:72:49:dc:8a:1a:
        d9:d2:12:0a:46:cb:ac:de:da:1b:ba:1a:81:a7:ee:bf:7f:3c:
        08:9c:ec:8d:8b:80:d6:46:8c:4b:80:93:c6:d9:75:46:ac:08:
        d6:1e:eb:02:5d:1f:8a:4a:13:3e:03:f6:17:29:59:13:eb:cc:
        46:0e:f6:2c:3e:5a:71:e9:ee:9c:ee:79:62:f2:e2:66:b5:39:
        8d:8f:b9:16:c9:0d:d2:8b:df:d5:0e:45:14:7c:b9:eb:a1:5a:
        bb:3d:30:a2:3a:89:7c:67:80:bc:99:62:25:54:d3:e2:c6:26:
        c5:3e
-----BEGIN CERTIFICATE-----
MIIC2TCCAkKgAwIBAgIJANIjePytLn2IMA0GCSqGSIb3DQEBBQUAMHIxCzAJBgNV
BAYTAkdCMQ8wDQYDVQQIEwZMb25kb24xFTATBgNVBAoTDFJvYmVydCBCeXJuZTEW
MBQGA1UEAxMNYnlybmVtYWlsLm9yZzEjMCEGCSqGSIb3DQEJARYUcm9iZXJ0QGJ5
cm5lbWFpbC5vcmcwHhcNMTMxMjA3MTMyNjQ2WhcNMTQxMjA3MTMyNjQ2WjBuMQsw
CQYDVQQGEwJHQjEPMA0GA1UECBMGTG9uZG9uMRkwFwYDVQQKFBBXaW5pZnJlZCBA
IExhdXJhMQ4wDAYDVQQDEwVsYXVyYTEjMCEGCSqGSIb3DQEJARYUcm9iZXJ0QGJ5
cm5lbWFpbC5vcmcwgZ8wDQYJKoZIhvcNAQEBBQADgY0AMIGJAoGBAMUypWYAmFRd
ZaodAkkL9FnXwSkHB/BvtP/CLxzx/RgS1eKGKRiNKr0+LI/pfZboDuuirYl+t6kU
sLcBhFFGug2hyhXf5iEmDtdYEESm2efA61NFJP/68DbM+AYrgmkRiIquZHoBORXN
RqSSW+eM7qn26QSOh56LU6CD7KR392KlAgMBAAGjezB5MAkGA1UdEwQCMAAwLAYJ
YIZIAYb4QgENBB8WHU9wZW5TU0wgR2VuZXJhdGVkIENlcnRpZmljYXRlMB0GA1Ud
DgQWBBRbh3kJVH2wV8jLOoWPPsrtAlTtFDAfBgNVHSMEGDAWgBTHJVVsTXGkQsYN
E82KeNarE7vc/DANBgkqhkiG9w0BAQUFAAOBgQAKZ1a/oypjmsgCMjZQckncihrZ
0hIKRsus3tobuhqBp+6/fzwInOyNi4DWRoxLgJPG2XVGrAjWHusCXR+KShM+A/YX
KVkT68xGDvYsPlpx6e6c7nli8uJmtTmNj7kWyQ3Si9/VDkUUfLnroVq7PTCiOol8
Z4C8mWIlVNPixibFPg==
-----END CERTIFICATE-----
Certificate:
    Data:
        Version: 3 (0x2)
        Serial Number:
            d2:23:78:fc:ad:2e:7d:82
        Signature Algorithm: sha1WithRSAEncryption
        Issuer: C=GB, ST=London, O=Robert Byrne, CN=byrnemail.org/emailAddress=robert@byrnemail.org
        Validity
            Not Before: Dec  4 11:55:53 2013 GMT
            Not After : Dec  3 11:55:53 2016 GMT
        Subject: C=GB, ST=London, O=Robert Byrne, CN=byrnemail.org/emailAddress=robert@byrnemail.org
        Subject Public Key Info:
            Public Key Algorithm: rsaEncryption
            RSA Public Key: (1024 bit)
                Modulus (1024 bit):
                    00:a9:7a:9c:ae:20:55:e5:74:45:de:20:de:38:b6:
                    04:8b:cf:3a:f4:1c:ee:e9:18:68:ea:25:c8:3a:88:
                    9f:ce:6d:a4:92:d6:6c:f9:b1:6a:38:51:0f:b2:1e:
                    54:8c:d6:63:2b:5f:de:ca:e2:8a:44:1e:86:22:00:
                    a4:5d:dd:fb:82:7b:12:d6:f5:f5:03:45:f8:07:ea:
                    f8:92:42:75:79:e8:55:10:45:3a:47:b7:62:5d:05:
                    10:0d:67:7f:2a:d5:8e:7b:d2:39:e0:c9:0a:84:56:
                    d6:7b:74:24:b8:e5:43:c9:3a:f3:89:f0:b6:f9:03:
                    7c:19:9b:45:45:ff:a7:c6:3f
                Exponent: 65537 (0x10001)
        X509v3 extensions:
            X509v3 Subject Key Identifier: 
                C7:25:55:6C:4D:71:A4:42:C6:0D:13:CD:8A:78:D6:AB:13:BB:DC:FC
            X509v3 Authority Key Identifier: 
                keyid:C7:25:55:6C:4D:71:A4:42:C6:0D:13:CD:8A:78:D6:AB:13:BB:DC:FC
                DirName:/C=GB/ST=London/O=Robert Byrne/CN=byrnemail.org/emailAddress=robert@byrnemail.org
                serial:D2:23:78:FC:AD:2E:7D:82

            X509v3 Basic Constraints: 
                CA:TRUE
    Signature Algorithm: sha1WithRSAEncryption
        64:cb:01:42:39:7f:3d:49:4c:4d:3f:31:44:35:f0:4e:33:2b:
        22:b4:cc:97:1c:2d:21:85:09:fd:02:09:b2:46:94:d0:fd:ea:
        1b:d9:e6:3b:bf:14:35:62:cf:77:5a:82:a5:b9:2d:9b:b9:57:
        32:f5:f7:b6:a0:94:02:62:2d:d7:f8:7e:99:8a:33:17:52:61:
        e8:01:f8:11:43:65:90:df:3b:43:5e:90:2e:d1:c0:5b:55:25:
        79:07:7f:6a:f3:42:64:ad:1f:00:85:b5:9f:1c:f1:54:93:33:
        8e:98:14:d8:1c:5c:fc:38:4a:e1:64:47:35:ee:67:22:f5:53:
        07:e0
-----BEGIN CERTIFICATE-----
MIIDOjCCAqOgAwIBAgIJANIjePytLn2CMA0GCSqGSIb3DQEBBQUAMHIxCzAJBgNV
BAYTAkdCMQ8wDQYDVQQIEwZMb25kb24xFTATBgNVBAoTDFJvYmVydCBCeXJuZTEW
MBQGA1UEAxMNYnlybmVtYWlsLm9yZzEjMCEGCSqGSIb3DQEJARYUcm9iZXJ0QGJ5
cm5lbWFpbC5vcmcwHhcNMTMxMjA0MTE1NTUzWhcNMTYxMjAzMTE1NTUzWjByMQsw
CQYDVQQGEwJHQjEPMA0GA1UECBMGTG9uZG9uMRUwEwYDVQQKEwxSb2JlcnQgQnly
bmUxFjAUBgNVBAMTDWJ5cm5lbWFpbC5vcmcxIzAhBgkqhkiG9w0BCQEWFHJvYmVy
dEBieXJuZW1haWwub3JnMIGfMA0GCSqGSIb3DQEBAQUAA4GNADCBiQKBgQCpepyu
IFXldEXeIN44tgSLzzr0HO7pGGjqJcg6iJ/ObaSS1mz5sWo4UQ+yHlSM1mMrX97K
4opEHoYiAKRd3fuCexLW9fUDRfgH6viSQnV56FUQRTpHt2JdBRANZ38q1Y570jng
yQqEVtZ7dCS45UPJOvOJ8Lb5A3wZm0VF/6fGPwIDAQABo4HXMIHUMB0GA1UdDgQW
BBTHJVVsTXGkQsYNE82KeNarE7vc/DCBpAYDVR0jBIGcMIGZgBTHJVVsTXGkQsYN
E82KeNarE7vc/KF2pHQwcjELMAkGA1UEBhMCR0IxDzANBgNVBAgTBkxvbmRvbjEV
MBMGA1UEChMMUm9iZXJ0IEJ5cm5lMRYwFAYDVQQDEw1ieXJuZW1haWwub3JnMSMw
IQYJKoZIhvcNAQkBFhRyb2JlcnRAYnlybmVtYWlsLm9yZ4IJANIjePytLn2CMAwG
A1UdEwQFMAMBAf8wDQYJKoZIhvcNAQEFBQADgYEAZMsBQjl/PUlMTT8xRDXwTjMr
IrTMlxwtIYUJ/QIJskaU0P3qG9nmO78UNWLPd1qCpbktm7lXMvX3tqCUAmIt1/h+
mYozF1Jh6AH4EUNlkN87Q16QLtHAW1UleQd/avNCZK0fAIW1nxzxVJMzjpgU2Bxc
/DhK4WRHNe5nIvVTB+A=
-----END CERTIFICATE-----
