Certificate:
    Data:
        Version: 3 (0x2)
        Serial Number:
            d2:23:78:fc:ad:2e:7d:84
        Signature Algorithm: sha1WithRSAEncryption
        Issuer: C=GB, ST=London, O=Robert Byrne, CN=byrnemail.org/emailAddress=robert@byrnemail.org
        Validity
            Not Before: Dec  4 21:23:19 2013 GMT
            Not After : Dec  4 21:23:19 2014 GMT
        Subject: C=GB, ST=England, L=London, O=Winifred, CN=localhost
        Subject Public Key Info:
            Public Key Algorithm: rsaEncryption
            RSA Public Key: (1024 bit)
                Modulus (1024 bit):
                    00:c8:7f:12:45:5c:24:de:01:2b:b2:5b:c1:56:f2:
                    c5:26:44:0e:d6:57:60:5f:6f:d1:69:d6:56:84:93:
                    34:52:f7:d0:f3:03:17:0c:4b:9e:23:24:23:df:05:
                    b4:f7:4f:5a:cb:3c:d2:a7:9d:04:d6:80:43:54:8e:
                    76:fe:90:f6:4b:27:9d:62:10:c2:ed:02:77:76:4e:
                    57:47:89:9a:77:c1:fe:63:b6:7e:a0:4c:c7:7d:1f:
                    4a:e5:db:9c:43:17:04:a2:ab:f1:43:67:48:5e:1a:
                    d3:9f:97:bb:c0:9c:51:fc:a3:15:04:c5:b8:87:0d:
                    db:ff:be:a7:56:eb:47:5f:11
                Exponent: 65537 (0x10001)
        X509v3 extensions:
            X509v3 Basic Constraints: 
                CA:FALSE
            Netscape Comment: 
                OpenSSL Generated Certificate
            X509v3 Subject Key Identifier: 
                62:05:60:C3:8B:DE:E5:10:34:E7:55:1B:DA:A2:9F:A7:0B:B4:B0:89
            X509v3 Authority Key Identifier: 
                keyid:C7:25:55:6C:4D:71:A4:42:C6:0D:13:CD:8A:78:D6:AB:13:BB:DC:FC

    Signature Algorithm: sha1WithRSAEncryption
        a7:c1:de:96:6c:f1:fc:18:68:a9:92:ca:97:95:29:61:0f:c5:
        99:6f:57:05:48:83:e2:78:9c:9e:c3:14:35:08:08:48:8f:51:
        ac:4b:c0:0f:c3:c4:39:e8:8a:e4:c9:d8:d5:55:a8:f6:88:aa:
        10:8b:e8:d5:49:7a:02:77:b6:99:b4:70:88:8a:f7:79:d8:a7:
        a5:1e:ee:3b:d2:3b:c7:da:8a:19:bb:a9:09:14:75:e2:e7:db:
        ee:01:12:d4:0a:8f:c7:13:8a:98:7b:2a:ba:ca:08:8c:20:87:
        e5:0c:b1:86:c5:05:c2:e8:59:df:5c:f9:45:81:17:72:c7:03:
        de:87
-----BEGIN CERTIFICATE-----
MIICwjCCAiugAwIBAgIJANIjePytLn2EMA0GCSqGSIb3DQEBBQUAMHIxCzAJBgNV
BAYTAkdCMQ8wDQYDVQQIEwZMb25kb24xFTATBgNVBAoTDFJvYmVydCBCeXJuZTEW
MBQGA1UEAxMNYnlybmVtYWlsLm9yZzEjMCEGCSqGSIb3DQEJARYUcm9iZXJ0QGJ5
cm5lbWFpbC5vcmcwHhcNMTMxMjA0MjEyMzE5WhcNMTQxMjA0MjEyMzE5WjBXMQsw
CQYDVQQGEwJHQjEQMA4GA1UECBMHRW5nbGFuZDEPMA0GA1UEBxMGTG9uZG9uMREw
DwYDVQQKEwhXaW5pZnJlZDESMBAGA1UEAxMJbG9jYWxob3N0MIGfMA0GCSqGSIb3
DQEBAQUAA4GNADCBiQKBgQDIfxJFXCTeASuyW8FW8sUmRA7WV2Bfb9Fp1laEkzRS
99DzAxcMS54jJCPfBbT3T1rLPNKnnQTWgENUjnb+kPZLJ51iEMLtAnd2TldHiZp3
wf5jtn6gTMd9H0rl25xDFwSiq/FDZ0heGtOfl7vAnFH8oxUExbiHDdv/vqdW60df
EQIDAQABo3sweTAJBgNVHRMEAjAAMCwGCWCGSAGG+EIBDQQfFh1PcGVuU1NMIEdl
bmVyYXRlZCBDZXJ0aWZpY2F0ZTAdBgNVHQ4EFgQUYgVgw4ve5RA051Ub2qKfpwu0
sIkwHwYDVR0jBBgwFoAUxyVVbE1xpELGDRPNinjWqxO73PwwDQYJKoZIhvcNAQEF
BQADgYEAp8Helmzx/BhoqZLKl5UpYQ/FmW9XBUiD4nicnsMUNQgISI9RrEvAD8PE
OeiK5MnY1VWo9oiqEIvo1Ul6Ane2mbRwiIr3edinpR7uO9I7x9qKGbupCRR14ufb
7gES1AqPxxOKmHsqusoIjCCH5QyxhsUFwuhZ31z5RYEXcscD3oc=
-----END CERTIFICATE-----
Certificate:
    Data:
        Version: 3 (0x2)
        Serial Number:
            d2:23:78:fc:ad:2e:7d:82
        Signature Algorithm: sha1WithRSAEncryption
        Issuer: C=GB, ST=London, O=Robert Byrne, CN=byrnemail.org/emailAddress=robert@byrnemail.org
        Validity
            Not Before: Dec  4 11:55:53 2013 GMT
            Not After : Dec  3 11:55:53 2016 GMT
        Subject: C=GB, ST=London, O=Robert Byrne, CN=byrnemail.org/emailAddress=robert@byrnemail.org
        Subject Public Key Info:
            Public Key Algorithm: rsaEncryption
            RSA Public Key: (1024 bit)
                Modulus (1024 bit):
                    00:a9:7a:9c:ae:20:55:e5:74:45:de:20:de:38:b6:
                    04:8b:cf:3a:f4:1c:ee:e9:18:68:ea:25:c8:3a:88:
                    9f:ce:6d:a4:92:d6:6c:f9:b1:6a:38:51:0f:b2:1e:
                    54:8c:d6:63:2b:5f:de:ca:e2:8a:44:1e:86:22:00:
                    a4:5d:dd:fb:82:7b:12:d6:f5:f5:03:45:f8:07:ea:
                    f8:92:42:75:79:e8:55:10:45:3a:47:b7:62:5d:05:
                    10:0d:67:7f:2a:d5:8e:7b:d2:39:e0:c9:0a:84:56:
                    d6:7b:74:24:b8:e5:43:c9:3a:f3:89:f0:b6:f9:03:
                    7c:19:9b:45:45:ff:a7:c6:3f
                Exponent: 65537 (0x10001)
        X509v3 extensions:
            X509v3 Subject Key Identifier: 
                C7:25:55:6C:4D:71:A4:42:C6:0D:13:CD:8A:78:D6:AB:13:BB:DC:FC
            X509v3 Authority Key Identifier: 
                keyid:C7:25:55:6C:4D:71:A4:42:C6:0D:13:CD:8A:78:D6:AB:13:BB:DC:FC
                DirName:/C=GB/ST=London/O=Robert Byrne/CN=byrnemail.org/emailAddress=robert@byrnemail.org
                serial:D2:23:78:FC:AD:2E:7D:82

            X509v3 Basic Constraints: 
                CA:TRUE
    Signature Algorithm: sha1WithRSAEncryption
        64:cb:01:42:39:7f:3d:49:4c:4d:3f:31:44:35:f0:4e:33:2b:
        22:b4:cc:97:1c:2d:21:85:09:fd:02:09:b2:46:94:d0:fd:ea:
        1b:d9:e6:3b:bf:14:35:62:cf:77:5a:82:a5:b9:2d:9b:b9:57:
        32:f5:f7:b6:a0:94:02:62:2d:d7:f8:7e:99:8a:33:17:52:61:
        e8:01:f8:11:43:65:90:df:3b:43:5e:90:2e:d1:c0:5b:55:25:
        79:07:7f:6a:f3:42:64:ad:1f:00:85:b5:9f:1c:f1:54:93:33:
        8e:98:14:d8:1c:5c:fc:38:4a:e1:64:47:35:ee:67:22:f5:53:
        07:e0
-----BEGIN CERTIFICATE-----
MIIDOjCCAqOgAwIBAgIJANIjePytLn2CMA0GCSqGSIb3DQEBBQUAMHIxCzAJBgNV
BAYTAkdCMQ8wDQYDVQQIEwZMb25kb24xFTATBgNVBAoTDFJvYmVydCBCeXJuZTEW
MBQGA1UEAxMNYnlybmVtYWlsLm9yZzEjMCEGCSqGSIb3DQEJARYUcm9iZXJ0QGJ5
cm5lbWFpbC5vcmcwHhcNMTMxMjA0MTE1NTUzWhcNMTYxMjAzMTE1NTUzWjByMQsw
CQYDVQQGEwJHQjEPMA0GA1UECBMGTG9uZG9uMRUwEwYDVQQKEwxSb2JlcnQgQnly
bmUxFjAUBgNVBAMTDWJ5cm5lbWFpbC5vcmcxIzAhBgkqhkiG9w0BCQEWFHJvYmVy
dEBieXJuZW1haWwub3JnMIGfMA0GCSqGSIb3DQEBAQUAA4GNADCBiQKBgQCpepyu
IFXldEXeIN44tgSLzzr0HO7pGGjqJcg6iJ/ObaSS1mz5sWo4UQ+yHlSM1mMrX97K
4opEHoYiAKRd3fuCexLW9fUDRfgH6viSQnV56FUQRTpHt2JdBRANZ38q1Y570jng
yQqEVtZ7dCS45UPJOvOJ8Lb5A3wZm0VF/6fGPwIDAQABo4HXMIHUMB0GA1UdDgQW
BBTHJVVsTXGkQsYNE82KeNarE7vc/DCBpAYDVR0jBIGcMIGZgBTHJVVsTXGkQsYN
E82KeNarE7vc/KF2pHQwcjELMAkGA1UEBhMCR0IxDzANBgNVBAgTBkxvbmRvbjEV
MBMGA1UEChMMUm9iZXJ0IEJ5cm5lMRYwFAYDVQQDEw1ieXJuZW1haWwub3JnMSMw
IQYJKoZIhvcNAQkBFhRyb2JlcnRAYnlybmVtYWlsLm9yZ4IJANIjePytLn2CMAwG
A1UdEwQFMAMBAf8wDQYJKoZIhvcNAQEFBQADgYEAZMsBQjl/PUlMTT8xRDXwTjMr
IrTMlxwtIYUJ/QIJskaU0P3qG9nmO78UNWLPd1qCpbktm7lXMvX3tqCUAmIt1/h+
mYozF1Jh6AH4EUNlkN87Q16QLtHAW1UleQd/avNCZK0fAIW1nxzxVJMzjpgU2Bxc
/DhK4WRHNe5nIvVTB+A=
-----END CERTIFICATE-----
