Certificate:
    Data:
        Version: 3 (0x2)
        Serial Number:
            d2:23:78:fc:ad:2e:7d:83
        Signature Algorithm: sha1WithRSAEncryption
        Issuer: C=GB, ST=London, O=Robert Byrne, CN=byrnemail.org/emailAddress=robert@byrnemail.org
        Validity
            Not Before: Dec  4 12:05:37 2013 GMT
            Not After : Dec  4 12:05:37 2014 GMT
        Subject: C=GB, ST=England, L=London, O=Winifred, CN=laura.lan/emailAddress=robert@byrnemail.org
        Subject Public Key Info:
            Public Key Algorithm: rsaEncryption
            RSA Public Key: (1024 bit)
                Modulus (1024 bit):
                    00:b7:28:26:c9:ad:e2:72:ba:db:9b:7b:14:32:72:
                    ad:7d:0b:f6:74:af:20:06:71:27:f3:d4:5b:e6:c9:
                    9d:2e:de:10:ce:fb:03:d3:cd:45:9a:38:8a:96:65:
                    50:c3:57:6c:19:17:60:c2:76:a9:0d:9c:ef:ac:27:
                    ec:87:f6:d5:b4:e4:0c:9b:6b:db:11:c0:b2:c3:d1:
                    53:d7:c4:4d:f3:eb:b3:bb:09:7a:3c:c9:8b:03:1e:
                    6d:26:a0:82:2e:f4:5a:52:07:2f:24:8d:fd:49:57:
                    0c:d5:b6:73:d8:2d:a4:d2:99:50:3a:70:1a:88:76:
                    d9:e2:fb:49:8f:fe:95:eb:d3
                Exponent: 65537 (0x10001)
        X509v3 extensions:
            X509v3 Basic Constraints: 
                CA:FALSE
            Netscape Comment: 
                OpenSSL Generated Certificate
            X509v3 Subject Key Identifier: 
                D9:C3:EA:F7:7C:1B:1E:66:61:30:99:D1:EE:E5:FB:6F:04:E7:1C:DC
            X509v3 Authority Key Identifier: 
                keyid:C7:25:55:6C:4D:71:A4:42:C6:0D:13:CD:8A:78:D6:AB:13:BB:DC:FC

    Signature Algorithm: sha1WithRSAEncryption
        3d:6a:21:c7:da:f8:c8:e0:69:52:41:ea:33:3b:54:42:cd:83:
        7e:a2:e3:e3:75:be:b0:d0:95:e1:25:72:9c:55:85:b6:43:ca:
        da:0d:1b:a8:c1:fb:a6:f6:9a:38:29:a7:ce:b7:be:ae:e9:47:
        6c:85:97:b3:99:da:08:4b:bf:05:04:5b:ee:15:b9:6a:54:e7:
        33:31:4d:f6:f4:8c:0e:0f:27:f9:e1:71:d7:4e:7e:75:dc:d7:
        45:e6:65:c8:45:24:c9:db:da:f7:64:43:80:af:7f:48:a9:4f:
        e4:46:3f:68:1e:ab:39:14:f4:ea:39:94:38:0c:1b:e5:96:21:
        ed:d9
-----BEGIN CERTIFICATE-----
MIIC5zCCAlCgAwIBAgIJANIjePytLn2DMA0GCSqGSIb3DQEBBQUAMHIxCzAJBgNV
BAYTAkdCMQ8wDQYDVQQIEwZMb25kb24xFTATBgNVBAoTDFJvYmVydCBCeXJuZTEW
MBQGA1UEAxMNYnlybmVtYWlsLm9yZzEjMCEGCSqGSIb3DQEJARYUcm9iZXJ0QGJ5
cm5lbWFpbC5vcmcwHhcNMTMxMjA0MTIwNTM3WhcNMTQxMjA0MTIwNTM3WjB8MQsw
CQYDVQQGEwJHQjEQMA4GA1UECBMHRW5nbGFuZDEPMA0GA1UEBxMGTG9uZG9uMREw
DwYDVQQKEwhXaW5pZnJlZDESMBAGA1UEAxMJbGF1cmEubGFuMSMwIQYJKoZIhvcN
AQkBFhRyb2JlcnRAYnlybmVtYWlsLm9yZzCBnzANBgkqhkiG9w0BAQEFAAOBjQAw
gYkCgYEAtygmya3icrrbm3sUMnKtfQv2dK8gBnEn89Rb5smdLt4QzvsD081FmjiK
lmVQw1dsGRdgwnapDZzvrCfsh/bVtOQMm2vbEcCyw9FT18RN8+uzuwl6PMmLAx5t
JqCCLvRaUgcvJI39SVcM1bZz2C2k0plQOnAaiHbZ4vtJj/6V69MCAwEAAaN7MHkw
CQYDVR0TBAIwADAsBglghkgBhvhCAQ0EHxYdT3BlblNTTCBHZW5lcmF0ZWQgQ2Vy
dGlmaWNhdGUwHQYDVR0OBBYEFNnD6vd8Gx5mYTCZ0e7l+28E5xzcMB8GA1UdIwQY
MBaAFMclVWxNcaRCxg0TzYp41qsTu9z8MA0GCSqGSIb3DQEBBQUAA4GBAD1qIcfa
+MjgaVJB6jM7VELNg36i4+N1vrDQleElcpxVhbZDytoNG6jB+6b2mjgpp863vq7p
R2yFl7OZ2ghLvwUEW+4VuWpU5zMxTfb0jA4PJ/nhcddOfnXc10XmZchFJMnb2vdk
Q4Cvf0ipT+RGP2geqzkU9Oo5lDgMG+WWIe3Z
-----END CERTIFICATE-----
Certificate:
    Data:
        Version: 3 (0x2)
        Serial Number:
            d2:23:78:fc:ad:2e:7d:82
        Signature Algorithm: sha1WithRSAEncryption
        Issuer: C=GB, ST=London, O=Robert Byrne, CN=byrnemail.org/emailAddress=robert@byrnemail.org
        Validity
            Not Before: Dec  4 11:55:53 2013 GMT
            Not After : Dec  3 11:55:53 2016 GMT
        Subject: C=GB, ST=London, O=Robert Byrne, CN=byrnemail.org/emailAddress=robert@byrnemail.org
        Subject Public Key Info:
            Public Key Algorithm: rsaEncryption
            RSA Public Key: (1024 bit)
                Modulus (1024 bit):
                    00:a9:7a:9c:ae:20:55:e5:74:45:de:20:de:38:b6:
                    04:8b:cf:3a:f4:1c:ee:e9:18:68:ea:25:c8:3a:88:
                    9f:ce:6d:a4:92:d6:6c:f9:b1:6a:38:51:0f:b2:1e:
                    54:8c:d6:63:2b:5f:de:ca:e2:8a:44:1e:86:22:00:
                    a4:5d:dd:fb:82:7b:12:d6:f5:f5:03:45:f8:07:ea:
                    f8:92:42:75:79:e8:55:10:45:3a:47:b7:62:5d:05:
                    10:0d:67:7f:2a:d5:8e:7b:d2:39:e0:c9:0a:84:56:
                    d6:7b:74:24:b8:e5:43:c9:3a:f3:89:f0:b6:f9:03:
                    7c:19:9b:45:45:ff:a7:c6:3f
                Exponent: 65537 (0x10001)
        X509v3 extensions:
            X509v3 Subject Key Identifier: 
                C7:25:55:6C:4D:71:A4:42:C6:0D:13:CD:8A:78:D6:AB:13:BB:DC:FC
            X509v3 Authority Key Identifier: 
                keyid:C7:25:55:6C:4D:71:A4:42:C6:0D:13:CD:8A:78:D6:AB:13:BB:DC:FC
                DirName:/C=GB/ST=London/O=Robert Byrne/CN=byrnemail.org/emailAddress=robert@byrnemail.org
                serial:D2:23:78:FC:AD:2E:7D:82

            X509v3 Basic Constraints: 
                CA:TRUE
    Signature Algorithm: sha1WithRSAEncryption
        64:cb:01:42:39:7f:3d:49:4c:4d:3f:31:44:35:f0:4e:33:2b:
        22:b4:cc:97:1c:2d:21:85:09:fd:02:09:b2:46:94:d0:fd:ea:
        1b:d9:e6:3b:bf:14:35:62:cf:77:5a:82:a5:b9:2d:9b:b9:57:
        32:f5:f7:b6:a0:94:02:62:2d:d7:f8:7e:99:8a:33:17:52:61:
        e8:01:f8:11:43:65:90:df:3b:43:5e:90:2e:d1:c0:5b:55:25:
        79:07:7f:6a:f3:42:64:ad:1f:00:85:b5:9f:1c:f1:54:93:33:
        8e:98:14:d8:1c:5c:fc:38:4a:e1:64:47:35:ee:67:22:f5:53:
        07:e0
-----BEGIN CERTIFICATE-----
MIIDOjCCAqOgAwIBAgIJANIjePytLn2CMA0GCSqGSIb3DQEBBQUAMHIxCzAJBgNV
BAYTAkdCMQ8wDQYDVQQIEwZMb25kb24xFTATBgNVBAoTDFJvYmVydCBCeXJuZTEW
MBQGA1UEAxMNYnlybmVtYWlsLm9yZzEjMCEGCSqGSIb3DQEJARYUcm9iZXJ0QGJ5
cm5lbWFpbC5vcmcwHhcNMTMxMjA0MTE1NTUzWhcNMTYxMjAzMTE1NTUzWjByMQsw
CQYDVQQGEwJHQjEPMA0GA1UECBMGTG9uZG9uMRUwEwYDVQQKEwxSb2JlcnQgQnly
bmUxFjAUBgNVBAMTDWJ5cm5lbWFpbC5vcmcxIzAhBgkqhkiG9w0BCQEWFHJvYmVy
dEBieXJuZW1haWwub3JnMIGfMA0GCSqGSIb3DQEBAQUAA4GNADCBiQKBgQCpepyu
IFXldEXeIN44tgSLzzr0HO7pGGjqJcg6iJ/ObaSS1mz5sWo4UQ+yHlSM1mMrX97K
4opEHoYiAKRd3fuCexLW9fUDRfgH6viSQnV56FUQRTpHt2JdBRANZ38q1Y570jng
yQqEVtZ7dCS45UPJOvOJ8Lb5A3wZm0VF/6fGPwIDAQABo4HXMIHUMB0GA1UdDgQW
BBTHJVVsTXGkQsYNE82KeNarE7vc/DCBpAYDVR0jBIGcMIGZgBTHJVVsTXGkQsYN
E82KeNarE7vc/KF2pHQwcjELMAkGA1UEBhMCR0IxDzANBgNVBAgTBkxvbmRvbjEV
MBMGA1UEChMMUm9iZXJ0IEJ5cm5lMRYwFAYDVQQDEw1ieXJuZW1haWwub3JnMSMw
IQYJKoZIhvcNAQkBFhRyb2JlcnRAYnlybmVtYWlsLm9yZ4IJANIjePytLn2CMAwG
A1UdEwQFMAMBAf8wDQYJKoZIhvcNAQEFBQADgYEAZMsBQjl/PUlMTT8xRDXwTjMr
IrTMlxwtIYUJ/QIJskaU0P3qG9nmO78UNWLPd1qCpbktm7lXMvX3tqCUAmIt1/h+
mYozF1Jh6AH4EUNlkN87Q16QLtHAW1UleQd/avNCZK0fAIW1nxzxVJMzjpgU2Bxc
/DhK4WRHNe5nIvVTB+A=
-----END CERTIFICATE-----
