Certificate:
    Data:
        Version: 3 (0x2)
        Serial Number:
            d2:23:78:fc:ad:2e:7d:85
        Signature Algorithm: sha1WithRSAEncryption
        Issuer: C=GB, ST=London, O=Robert Byrne, CN=byrnemail.org/emailAddress=robert@byrnemail.org
        Validity
            Not Before: Dec  5 13:55:07 2013 GMT
            Not After : Dec  5 13:55:07 2014 GMT
        Subject: C=AU, ST=Some-State, O=rob, CN=blah
        Subject Public Key Info:
            Public Key Algorithm: rsaEncryption
            RSA Public Key: (1024 bit)
                Modulus (1024 bit):
                    00:da:08:65:f4:28:79:35:8e:75:76:de:82:6c:11:
                    3d:05:c3:ff:11:97:9d:e6:bc:c0:72:57:c2:14:29:
                    45:83:24:2e:07:0d:01:30:4c:51:00:73:76:59:a3:
                    e9:49:75:6d:ac:e5:46:7c:83:f3:73:71:8a:9f:78:
                    67:9e:96:77:33:46:f1:6b:44:17:8a:d2:8e:9f:e8:
                    b0:c9:e7:9b:a4:ab:69:26:bb:08:a1:67:09:0b:12:
                    93:af:6f:56:1e:03:02:d3:87:59:fa:d5:2c:93:dd:
                    a8:60:5e:b2:ee:24:55:6d:45:b5:7c:95:e1:62:3c:
                    f3:ee:57:ca:7c:07:4a:c3:29
                Exponent: 65537 (0x10001)
        X509v3 extensions:
            X509v3 Basic Constraints: 
                CA:FALSE
            Netscape Comment: 
                OpenSSL Generated Certificate
            X509v3 Subject Key Identifier: 
                70:E0:38:CB:BF:C8:A1:65:CD:F3:7B:7A:29:D9:5C:91:84:87:05:C4
            X509v3 Authority Key Identifier: 
                keyid:C7:25:55:6C:4D:71:A4:42:C6:0D:13:CD:8A:78:D6:AB:13:BB:DC:FC

    Signature Algorithm: sha1WithRSAEncryption
        51:a3:cc:9f:4c:d1:6e:e9:db:98:19:e0:ff:f5:e1:b9:02:9b:
        76:31:08:1e:de:b3:70:a5:74:42:67:f1:71:6b:43:70:73:c3:
        9d:05:eb:08:77:9e:e0:e7:0c:ae:bd:bd:44:8c:00:f5:e9:05:
        af:25:ef:ce:f1:3c:de:8a:90:ba:8a:56:4b:6e:35:81:26:5c:
        d2:f0:d2:c6:56:41:a6:23:63:d7:ce:3c:06:de:2b:0c:b4:c9:
        2d:fb:1f:63:41:76:6f:cd:82:27:4c:bd:45:00:fa:1b:76:53:
        b4:60:42:b4:57:bc:fe:95:e7:43:5b:11:bc:b3:7e:db:82:02:
        c4:12
-----BEGIN CERTIFICATE-----
MIICqjCCAhOgAwIBAgIJANIjePytLn2FMA0GCSqGSIb3DQEBBQUAMHIxCzAJBgNV
BAYTAkdCMQ8wDQYDVQQIEwZMb25kb24xFTATBgNVBAoTDFJvYmVydCBCeXJuZTEW
MBQGA1UEAxMNYnlybmVtYWlsLm9yZzEjMCEGCSqGSIb3DQEJARYUcm9iZXJ0QGJ5
cm5lbWFpbC5vcmcwHhcNMTMxMjA1MTM1NTA3WhcNMTQxMjA1MTM1NTA3WjA/MQsw
CQYDVQQGEwJBVTETMBEGA1UECBMKU29tZS1TdGF0ZTEMMAoGA1UEChMDcm9iMQ0w
CwYDVQQDEwRibGFoMIGfMA0GCSqGSIb3DQEBAQUAA4GNADCBiQKBgQDaCGX0KHk1
jnV23oJsET0Fw/8Rl53mvMByV8IUKUWDJC4HDQEwTFEAc3ZZo+lJdW2s5UZ8g/Nz
cYqfeGeelnczRvFrRBeK0o6f6LDJ55ukq2kmuwihZwkLEpOvb1YeAwLTh1n61SyT
3ahgXrLuJFVtRbV8leFiPPPuV8p8B0rDKQIDAQABo3sweTAJBgNVHRMEAjAAMCwG
CWCGSAGG+EIBDQQfFh1PcGVuU1NMIEdlbmVyYXRlZCBDZXJ0aWZpY2F0ZTAdBgNV
HQ4EFgQUcOA4y7/IoWXN83t6KdlckYSHBcQwHwYDVR0jBBgwFoAUxyVVbE1xpELG
DRPNinjWqxO73PwwDQYJKoZIhvcNAQEFBQADgYEAUaPMn0zRbunbmBng//XhuQKb
djEIHt6zcKV0QmfxcWtDcHPDnQXrCHee4OcMrr29RIwA9ekFryXvzvE83oqQuopW
S241gSZc0vDSxlZBpiNj1848Bt4rDLTJLfsfY0F2b82CJ0y9RQD6G3ZTtGBCtFe8
/pXnQ1sRvLN+24ICxBI=
-----END CERTIFICATE-----
Certificate:
    Data:
        Version: 3 (0x2)
        Serial Number:
            d2:23:78:fc:ad:2e:7d:82
        Signature Algorithm: sha1WithRSAEncryption
        Issuer: C=GB, ST=London, O=Robert Byrne, CN=byrnemail.org/emailAddress=robert@byrnemail.org
        Validity
            Not Before: Dec  4 11:55:53 2013 GMT
            Not After : Dec  3 11:55:53 2016 GMT
        Subject: C=GB, ST=London, O=Robert Byrne, CN=byrnemail.org/emailAddress=robert@byrnemail.org
        Subject Public Key Info:
            Public Key Algorithm: rsaEncryption
            RSA Public Key: (1024 bit)
                Modulus (1024 bit):
                    00:a9:7a:9c:ae:20:55:e5:74:45:de:20:de:38:b6:
                    04:8b:cf:3a:f4:1c:ee:e9:18:68:ea:25:c8:3a:88:
                    9f:ce:6d:a4:92:d6:6c:f9:b1:6a:38:51:0f:b2:1e:
                    54:8c:d6:63:2b:5f:de:ca:e2:8a:44:1e:86:22:00:
                    a4:5d:dd:fb:82:7b:12:d6:f5:f5:03:45:f8:07:ea:
                    f8:92:42:75:79:e8:55:10:45:3a:47:b7:62:5d:05:
                    10:0d:67:7f:2a:d5:8e:7b:d2:39:e0:c9:0a:84:56:
                    d6:7b:74:24:b8:e5:43:c9:3a:f3:89:f0:b6:f9:03:
                    7c:19:9b:45:45:ff:a7:c6:3f
                Exponent: 65537 (0x10001)
        X509v3 extensions:
            X509v3 Subject Key Identifier: 
                C7:25:55:6C:4D:71:A4:42:C6:0D:13:CD:8A:78:D6:AB:13:BB:DC:FC
            X509v3 Authority Key Identifier: 
                keyid:C7:25:55:6C:4D:71:A4:42:C6:0D:13:CD:8A:78:D6:AB:13:BB:DC:FC
                DirName:/C=GB/ST=London/O=Robert Byrne/CN=byrnemail.org/emailAddress=robert@byrnemail.org
                serial:D2:23:78:FC:AD:2E:7D:82

            X509v3 Basic Constraints: 
                CA:TRUE
    Signature Algorithm: sha1WithRSAEncryption
        64:cb:01:42:39:7f:3d:49:4c:4d:3f:31:44:35:f0:4e:33:2b:
        22:b4:cc:97:1c:2d:21:85:09:fd:02:09:b2:46:94:d0:fd:ea:
        1b:d9:e6:3b:bf:14:35:62:cf:77:5a:82:a5:b9:2d:9b:b9:57:
        32:f5:f7:b6:a0:94:02:62:2d:d7:f8:7e:99:8a:33:17:52:61:
        e8:01:f8:11:43:65:90:df:3b:43:5e:90:2e:d1:c0:5b:55:25:
        79:07:7f:6a:f3:42:64:ad:1f:00:85:b5:9f:1c:f1:54:93:33:
        8e:98:14:d8:1c:5c:fc:38:4a:e1:64:47:35:ee:67:22:f5:53:
        07:e0
-----BEGIN CERTIFICATE-----
MIIDOjCCAqOgAwIBAgIJANIjePytLn2CMA0GCSqGSIb3DQEBBQUAMHIxCzAJBgNV
BAYTAkdCMQ8wDQYDVQQIEwZMb25kb24xFTATBgNVBAoTDFJvYmVydCBCeXJuZTEW
MBQGA1UEAxMNYnlybmVtYWlsLm9yZzEjMCEGCSqGSIb3DQEJARYUcm9iZXJ0QGJ5
cm5lbWFpbC5vcmcwHhcNMTMxMjA0MTE1NTUzWhcNMTYxMjAzMTE1NTUzWjByMQsw
CQYDVQQGEwJHQjEPMA0GA1UECBMGTG9uZG9uMRUwEwYDVQQKEwxSb2JlcnQgQnly
bmUxFjAUBgNVBAMTDWJ5cm5lbWFpbC5vcmcxIzAhBgkqhkiG9w0BCQEWFHJvYmVy
dEBieXJuZW1haWwub3JnMIGfMA0GCSqGSIb3DQEBAQUAA4GNADCBiQKBgQCpepyu
IFXldEXeIN44tgSLzzr0HO7pGGjqJcg6iJ/ObaSS1mz5sWo4UQ+yHlSM1mMrX97K
4opEHoYiAKRd3fuCexLW9fUDRfgH6viSQnV56FUQRTpHt2JdBRANZ38q1Y570jng
yQqEVtZ7dCS45UPJOvOJ8Lb5A3wZm0VF/6fGPwIDAQABo4HXMIHUMB0GA1UdDgQW
BBTHJVVsTXGkQsYNE82KeNarE7vc/DCBpAYDVR0jBIGcMIGZgBTHJVVsTXGkQsYN
E82KeNarE7vc/KF2pHQwcjELMAkGA1UEBhMCR0IxDzANBgNVBAgTBkxvbmRvbjEV
MBMGA1UEChMMUm9iZXJ0IEJ5cm5lMRYwFAYDVQQDEw1ieXJuZW1haWwub3JnMSMw
IQYJKoZIhvcNAQkBFhRyb2JlcnRAYnlybmVtYWlsLm9yZ4IJANIjePytLn2CMAwG
A1UdEwQFMAMBAf8wDQYJKoZIhvcNAQEFBQADgYEAZMsBQjl/PUlMTT8xRDXwTjMr
IrTMlxwtIYUJ/QIJskaU0P3qG9nmO78UNWLPd1qCpbktm7lXMvX3tqCUAmIt1/h+
mYozF1Jh6AH4EUNlkN87Q16QLtHAW1UleQd/avNCZK0fAIW1nxzxVJMzjpgU2Bxc
/DhK4WRHNe5nIvVTB+A=
-----END CERTIFICATE-----
-----BEGIN RSA PRIVATE KEY-----
MIICXwIBAAKBgQDaCGX0KHk1jnV23oJsET0Fw/8Rl53mvMByV8IUKUWDJC4HDQEw
TFEAc3ZZo+lJdW2s5UZ8g/NzcYqfeGeelnczRvFrRBeK0o6f6LDJ55ukq2kmuwih
ZwkLEpOvb1YeAwLTh1n61SyT3ahgXrLuJFVtRbV8leFiPPPuV8p8B0rDKQIDAQAB
AoGBANVXiGN7QvcruTaiDR4vU/WTTb9qCwCeyvRXeLl/lNv4h+0wRWx8EHqPgEvA
PmI5vCKEig8Gki3w+MKH72RXOLQuANCD5CvD64t6JwWvq2dHUXB8bwN71EUoBsnu
kkiblq7VTOd7KhFP/zi6Kbo3qsB4L1GIbdUAYGXUOuCijOo9AkEA+TmY5QLBmZMc
m7QttxdcwxGm2H6V6TtTl6nlBjwOf8NgrTjvYS2vtTZ4bXmPoJTz46TX1K6y+Ck4
ZNPtwCypMwJBAN/1upVzWAC9p3Av2V2H8iGDcvmciFQNKbJAbESW4lnPFPlztKEO
WcSyXgGnV2lCsv41QIbN7UbewAnd6MKyujMCQQDRP/PIbB0ChYrijFBJxprCyaJN
aVMSxRX1Y9b/+hKuYOtd5UzPSd2aB4brW8IksItpWbFBSADJ7UoFFg8raBQTAkEA
pAG2bqV2J6y7Rlu0CVt5xHMXqpWn/C1bgI7O+neoMO6GRJsoBt2UfYfFcd6TE6Fl
pOVoaI+7GDAdX9xjDNmHowJBAMybKBdJdOIG0zSQb40lra8iyfdwEcGLD+6DBxjq
L7LTH1Vck/GGl+2e+sgg0N8NPElGCH2Xvkj8BwTPFu3LQFI=
-----END RSA PRIVATE KEY-----
