Certificate:
    Data:
        Version: 3 (0x2)
        Serial Number:
            d2:23:78:fc:ad:2e:7d:89
        Signature Algorithm: sha1WithRSAEncryption
        Issuer: C=GB, ST=London, O=Robert Byrne, CN=byrnemail.org/emailAddress=robert@byrnemail.org
        Validity
            Not Before: Dec  7 13:48:25 2013 GMT
            Not After : Dec  7 13:48:25 2014 GMT
        Subject: C=GB, ST=London, O=Robs Iphone, CN=robsphone/emailAddress=robert@byrnemail.org
        Subject Public Key Info:
            Public Key Algorithm: rsaEncryption
            RSA Public Key: (1024 bit)
                Modulus (1024 bit):
                    00:aa:5b:44:a3:a0:64:69:86:68:d2:3d:24:64:10:
                    d8:96:11:6b:66:86:f9:36:fe:53:98:4c:83:90:7d:
                    5c:80:1b:1d:84:e3:e7:91:63:9d:7a:d2:76:12:2f:
                    8d:56:14:28:ee:71:cc:8c:88:d5:34:d8:9a:15:8a:
                    dd:57:bd:02:81:12:71:6d:89:8b:c0:51:05:f4:ab:
                    87:61:71:3c:b4:7b:9d:6c:21:ff:12:d3:51:fa:7f:
                    a8:a9:1b:dc:4e:31:72:be:86:30:97:9d:fa:36:df:
                    86:d5:a2:aa:4c:23:41:66:f5:e2:c2:73:b8:e3:04:
                    06:19:03:30:ba:cc:c2:67:f5
                Exponent: 65537 (0x10001)
        X509v3 extensions:
            X509v3 Basic Constraints: 
                CA:FALSE
            Netscape Comment: 
                OpenSSL Generated Certificate
            X509v3 Subject Key Identifier: 
                81:5C:3D:0A:C5:14:B0:4C:7C:67:92:03:27:41:19:4A:AE:C3:F3:A0
            X509v3 Authority Key Identifier: 
                keyid:C7:25:55:6C:4D:71:A4:42:C6:0D:13:CD:8A:78:D6:AB:13:BB:DC:FC

    Signature Algorithm: sha1WithRSAEncryption
        6d:b3:cd:b9:7a:66:10:3c:dc:f1:60:68:82:eb:eb:7c:a3:0c:
        7f:86:30:f0:6e:65:74:fe:29:63:d3:6c:ca:62:76:7d:f7:c4:
        a6:2c:bc:6b:2a:17:17:8c:00:92:06:d8:b8:6b:48:3b:c5:0a:
        f2:a0:bf:64:cd:5c:35:48:01:c9:42:99:aa:69:d6:f2:e5:32:
        08:a5:29:94:ec:7c:21:04:cc:bd:48:11:fd:fb:b1:66:a4:5b:
        c6:df:88:9d:a1:26:92:5c:5f:d8:1b:ad:46:c1:cd:96:16:bb:
        44:f7:d3:36:93:c0:36:ae:3c:6d:a5:36:d5:25:98:1f:b8:05:
        c6:3e
-----BEGIN CERTIFICATE-----
MIIC2DCCAkGgAwIBAgIJANIjePytLn2JMA0GCSqGSIb3DQEBBQUAMHIxCzAJBgNV
BAYTAkdCMQ8wDQYDVQQIEwZMb25kb24xFTATBgNVBAoTDFJvYmVydCBCeXJuZTEW
MBQGA1UEAxMNYnlybmVtYWlsLm9yZzEjMCEGCSqGSIb3DQEJARYUcm9iZXJ0QGJ5
cm5lbWFpbC5vcmcwHhcNMTMxMjA3MTM0ODI1WhcNMTQxMjA3MTM0ODI1WjBtMQsw
CQYDVQQGEwJHQjEPMA0GA1UECBMGTG9uZG9uMRQwEgYDVQQKEwtSb2JzIElwaG9u
ZTESMBAGA1UEAxMJcm9ic3Bob25lMSMwIQYJKoZIhvcNAQkBFhRyb2JlcnRAYnly
bmVtYWlsLm9yZzCBnzANBgkqhkiG9w0BAQEFAAOBjQAwgYkCgYEAqltEo6BkaYZo
0j0kZBDYlhFrZob5Nv5TmEyDkH1cgBsdhOPnkWOdetJ2Ei+NVhQo7nHMjIjVNNia
FYrdV70CgRJxbYmLwFEF9KuHYXE8tHudbCH/EtNR+n+oqRvcTjFyvoYwl536Nt+G
1aKqTCNBZvXiwnO44wQGGQMwuszCZ/UCAwEAAaN7MHkwCQYDVR0TBAIwADAsBglg
hkgBhvhCAQ0EHxYdT3BlblNTTCBHZW5lcmF0ZWQgQ2VydGlmaWNhdGUwHQYDVR0O
BBYEFIFcPQrFFLBMfGeSAydBGUquw/OgMB8GA1UdIwQYMBaAFMclVWxNcaRCxg0T
zYp41qsTu9z8MA0GCSqGSIb3DQEBBQUAA4GBAG2zzbl6ZhA83PFgaILr63yjDH+G
MPBuZXT+KWPTbMpidn33xKYsvGsqFxeMAJIG2LhrSDvFCvKgv2TNXDVIAclCmapp
1vLlMgilKZTsfCEEzL1IEf37sWakW8bfiJ2hJpJcX9gbrUbBzZYWu0T30zaTwDau
PG2lNtUlmB+4BcY+
-----END CERTIFICATE-----
