Certificate:
    Data:
        Version: 3 (0x2)
        Serial Number:
            d2:23:78:fc:ad:2e:7d:85
        Signature Algorithm: sha1WithRSAEncryption
        Issuer: C=GB, ST=London, O=Robert Byrne, CN=byrnemail.org/emailAddress=robert@byrnemail.org
        Validity
            Not Before: Dec  5 13:55:07 2013 GMT
            Not After : Dec  5 13:55:07 2014 GMT
        Subject: C=AU, ST=Some-State, O=rob, CN=blah
        Subject Public Key Info:
            Public Key Algorithm: rsaEncryption
            RSA Public Key: (1024 bit)
                Modulus (1024 bit):
                    00:da:08:65:f4:28:79:35:8e:75:76:de:82:6c:11:
                    3d:05:c3:ff:11:97:9d:e6:bc:c0:72:57:c2:14:29:
                    45:83:24:2e:07:0d:01:30:4c:51:00:73:76:59:a3:
                    e9:49:75:6d:ac:e5:46:7c:83:f3:73:71:8a:9f:78:
                    67:9e:96:77:33:46:f1:6b:44:17:8a:d2:8e:9f:e8:
                    b0:c9:e7:9b:a4:ab:69:26:bb:08:a1:67:09:0b:12:
                    93:af:6f:56:1e:03:02:d3:87:59:fa:d5:2c:93:dd:
                    a8:60:5e:b2:ee:24:55:6d:45:b5:7c:95:e1:62:3c:
                    f3:ee:57:ca:7c:07:4a:c3:29
                Exponent: 65537 (0x10001)
        X509v3 extensions:
            X509v3 Basic Constraints: 
                CA:FALSE
            Netscape Comment: 
                OpenSSL Generated Certificate
            X509v3 Subject Key Identifier: 
                70:E0:38:CB:BF:C8:A1:65:CD:F3:7B:7A:29:D9:5C:91:84:87:05:C4
            X509v3 Authority Key Identifier: 
                keyid:C7:25:55:6C:4D:71:A4:42:C6:0D:13:CD:8A:78:D6:AB:13:BB:DC:FC

    Signature Algorithm: sha1WithRSAEncryption
        51:a3:cc:9f:4c:d1:6e:e9:db:98:19:e0:ff:f5:e1:b9:02:9b:
        76:31:08:1e:de:b3:70:a5:74:42:67:f1:71:6b:43:70:73:c3:
        9d:05:eb:08:77:9e:e0:e7:0c:ae:bd:bd:44:8c:00:f5:e9:05:
        af:25:ef:ce:f1:3c:de:8a:90:ba:8a:56:4b:6e:35:81:26:5c:
        d2:f0:d2:c6:56:41:a6:23:63:d7:ce:3c:06:de:2b:0c:b4:c9:
        2d:fb:1f:63:41:76:6f:cd:82:27:4c:bd:45:00:fa:1b:76:53:
        b4:60:42:b4:57:bc:fe:95:e7:43:5b:11:bc:b3:7e:db:82:02:
        c4:12
-----BEGIN CERTIFICATE-----
MIICqjCCAhOgAwIBAgIJANIjePytLn2FMA0GCSqGSIb3DQEBBQUAMHIxCzAJBgNV
BAYTAkdCMQ8wDQYDVQQIEwZMb25kb24xFTATBgNVBAoTDFJvYmVydCBCeXJuZTEW
MBQGA1UEAxMNYnlybmVtYWlsLm9yZzEjMCEGCSqGSIb3DQEJARYUcm9iZXJ0QGJ5
cm5lbWFpbC5vcmcwHhcNMTMxMjA1MTM1NTA3WhcNMTQxMjA1MTM1NTA3WjA/MQsw
CQYDVQQGEwJBVTETMBEGA1UECBMKU29tZS1TdGF0ZTEMMAoGA1UEChMDcm9iMQ0w
CwYDVQQDEwRibGFoMIGfMA0GCSqGSIb3DQEBAQUAA4GNADCBiQKBgQDaCGX0KHk1
jnV23oJsET0Fw/8Rl53mvMByV8IUKUWDJC4HDQEwTFEAc3ZZo+lJdW2s5UZ8g/Nz
cYqfeGeelnczRvFrRBeK0o6f6LDJ55ukq2kmuwihZwkLEpOvb1YeAwLTh1n61SyT
3ahgXrLuJFVtRbV8leFiPPPuV8p8B0rDKQIDAQABo3sweTAJBgNVHRMEAjAAMCwG
CWCGSAGG+EIBDQQfFh1PcGVuU1NMIEdlbmVyYXRlZCBDZXJ0aWZpY2F0ZTAdBgNV
HQ4EFgQUcOA4y7/IoWXN83t6KdlckYSHBcQwHwYDVR0jBBgwFoAUxyVVbE1xpELG
DRPNinjWqxO73PwwDQYJKoZIhvcNAQEFBQADgYEAUaPMn0zRbunbmBng//XhuQKb
djEIHt6zcKV0QmfxcWtDcHPDnQXrCHee4OcMrr29RIwA9ekFryXvzvE83oqQuopW
S241gSZc0vDSxlZBpiNj1848Bt4rDLTJLfsfY0F2b82CJ0y9RQD6G3ZTtGBCtFe8
/pXnQ1sRvLN+24ICxBI=
-----END CERTIFICATE-----
