Certificate:
    Data:
        Version: 3 (0x2)
        Serial Number:
            d2:23:78:fc:ad:2e:7d:84
        Signature Algorithm: sha1WithRSAEncryption
        Issuer: C=GB, ST=London, O=Robert Byrne, CN=byrnemail.org/emailAddress=robert@byrnemail.org
        Validity
            Not Before: Dec  4 21:23:19 2013 GMT
            Not After : Dec  4 21:23:19 2014 GMT
        Subject: C=GB, ST=England, L=London, O=Winifred, CN=localhost
        Subject Public Key Info:
            Public Key Algorithm: rsaEncryption
            RSA Public Key: (1024 bit)
                Modulus (1024 bit):
                    00:c8:7f:12:45:5c:24:de:01:2b:b2:5b:c1:56:f2:
                    c5:26:44:0e:d6:57:60:5f:6f:d1:69:d6:56:84:93:
                    34:52:f7:d0:f3:03:17:0c:4b:9e:23:24:23:df:05:
                    b4:f7:4f:5a:cb:3c:d2:a7:9d:04:d6:80:43:54:8e:
                    76:fe:90:f6:4b:27:9d:62:10:c2:ed:02:77:76:4e:
                    57:47:89:9a:77:c1:fe:63:b6:7e:a0:4c:c7:7d:1f:
                    4a:e5:db:9c:43:17:04:a2:ab:f1:43:67:48:5e:1a:
                    d3:9f:97:bb:c0:9c:51:fc:a3:15:04:c5:b8:87:0d:
                    db:ff:be:a7:56:eb:47:5f:11
                Exponent: 65537 (0x10001)
        X509v3 extensions:
            X509v3 Basic Constraints: 
                CA:FALSE
            Netscape Comment: 
                OpenSSL Generated Certificate
            X509v3 Subject Key Identifier: 
                62:05:60:C3:8B:DE:E5:10:34:E7:55:1B:DA:A2:9F:A7:0B:B4:B0:89
            X509v3 Authority Key Identifier: 
                keyid:C7:25:55:6C:4D:71:A4:42:C6:0D:13:CD:8A:78:D6:AB:13:BB:DC:FC

    Signature Algorithm: sha1WithRSAEncryption
        a7:c1:de:96:6c:f1:fc:18:68:a9:92:ca:97:95:29:61:0f:c5:
        99:6f:57:05:48:83:e2:78:9c:9e:c3:14:35:08:08:48:8f:51:
        ac:4b:c0:0f:c3:c4:39:e8:8a:e4:c9:d8:d5:55:a8:f6:88:aa:
        10:8b:e8:d5:49:7a:02:77:b6:99:b4:70:88:8a:f7:79:d8:a7:
        a5:1e:ee:3b:d2:3b:c7:da:8a:19:bb:a9:09:14:75:e2:e7:db:
        ee:01:12:d4:0a:8f:c7:13:8a:98:7b:2a:ba:ca:08:8c:20:87:
        e5:0c:b1:86:c5:05:c2:e8:59:df:5c:f9:45:81:17:72:c7:03:
        de:87
-----BEGIN CERTIFICATE-----
MIICwjCCAiugAwIBAgIJANIjePytLn2EMA0GCSqGSIb3DQEBBQUAMHIxCzAJBgNV
BAYTAkdCMQ8wDQYDVQQIEwZMb25kb24xFTATBgNVBAoTDFJvYmVydCBCeXJuZTEW
MBQGA1UEAxMNYnlybmVtYWlsLm9yZzEjMCEGCSqGSIb3DQEJARYUcm9iZXJ0QGJ5
cm5lbWFpbC5vcmcwHhcNMTMxMjA0MjEyMzE5WhcNMTQxMjA0MjEyMzE5WjBXMQsw
CQYDVQQGEwJHQjEQMA4GA1UECBMHRW5nbGFuZDEPMA0GA1UEBxMGTG9uZG9uMREw
DwYDVQQKEwhXaW5pZnJlZDESMBAGA1UEAxMJbG9jYWxob3N0MIGfMA0GCSqGSIb3
DQEBAQUAA4GNADCBiQKBgQDIfxJFXCTeASuyW8FW8sUmRA7WV2Bfb9Fp1laEkzRS
99DzAxcMS54jJCPfBbT3T1rLPNKnnQTWgENUjnb+kPZLJ51iEMLtAnd2TldHiZp3
wf5jtn6gTMd9H0rl25xDFwSiq/FDZ0heGtOfl7vAnFH8oxUExbiHDdv/vqdW60df
EQIDAQABo3sweTAJBgNVHRMEAjAAMCwGCWCGSAGG+EIBDQQfFh1PcGVuU1NMIEdl
bmVyYXRlZCBDZXJ0aWZpY2F0ZTAdBgNVHQ4EFgQUYgVgw4ve5RA051Ub2qKfpwu0
sIkwHwYDVR0jBBgwFoAUxyVVbE1xpELGDRPNinjWqxO73PwwDQYJKoZIhvcNAQEF
BQADgYEAp8Helmzx/BhoqZLKl5UpYQ/FmW9XBUiD4nicnsMUNQgISI9RrEvAD8PE
OeiK5MnY1VWo9oiqEIvo1Ul6Ane2mbRwiIr3edinpR7uO9I7x9qKGbupCRR14ufb
7gES1AqPxxOKmHsqusoIjCCH5QyxhsUFwuhZ31z5RYEXcscD3oc=
-----END CERTIFICATE-----
